target datalayout = "e-m:e-p270:32:32-p271:32:32-p272:64:64-i64:64-i128:128-f80:128-n8:16:32:64-S128"
target triple = "x86_64-pc-linux-gnu"

%"struct.faiss::RangeSearchResult" = type { ptr, i64, ptr, ptr, ptr, i64 }
%"struct.faiss::BufferList" = type { i64, %"class.std::vector", i64 }
%"class.std::vector" = type { %"struct.std::_Vector_base" }
%"struct.std::_Vector_base" = type { %"struct.std::_Vector_base<faiss::BufferList::Buffer, std::allocator<faiss::BufferList::Buffer>>::_Vector_impl" }
%"struct.std::_Vector_base<faiss::BufferList::Buffer, std::allocator<faiss::BufferList::Buffer>>::_Vector_impl" = type { %"struct.std::_Vector_base<faiss::BufferList::Buffer, std::allocator<faiss::BufferList::Buffer>>::_Vector_impl_data" }
%"struct.std::_Vector_base<faiss::BufferList::Buffer, std::allocator<faiss::BufferList::Buffer>>::_Vector_impl_data" = type { ptr, ptr, ptr }
%"struct.faiss::RangeQueryResult" = type { i64, i64, ptr }
%"struct.faiss::RangeSearchPartialResult" = type { %"struct.faiss::BufferList", ptr, %"class.std::vector.3" }
%"class.std::vector.3" = type { %"struct.std::_Vector_base.4" }
%"struct.std::_Vector_base.4" = type { %"struct.std::_Vector_base<faiss::RangeQueryResult, std::allocator<faiss::RangeQueryResult>>::_Vector_impl" }
%"struct.std::_Vector_base<faiss::RangeQueryResult, std::allocator<faiss::RangeQueryResult>>::_Vector_impl" = type { %"struct.std::_Vector_base<faiss::RangeQueryResult, std::allocator<faiss::RangeQueryResult>>::_Vector_impl_data" }
%"struct.std::_Vector_base<faiss::RangeQueryResult, std::allocator<faiss::RangeQueryResult>>::_Vector_impl_data" = type { ptr, ptr, ptr }

; Function Attrs: mustprogress nounwind uwtable
define linkonce_odr noundef nonnull align 8 dereferenceable(24) ptr @_ZNSt6vectorIN5faiss16RangeQueryResultESaIS1_EEixEm(ptr noundef nonnull align 8 dereferenceable(24) %0, i64 noundef %1) #1 comdat align 2 {
  %3 = alloca ptr, align 8
  %4 = alloca i64, align 8
  store ptr %0, ptr %3, align 8
  store i64 %1, ptr %4, align 8
  %5 = load ptr, ptr %3, align 8
  %6 = getelementptr inbounds %"struct.std::_Vector_base.4", ptr %5, i32 0, i32 0
  %7 = getelementptr inbounds %"struct.std::_Vector_base<faiss::RangeQueryResult, std::allocator<faiss::RangeQueryResult>>::_Vector_impl_data", ptr %6, i32 0, i32 0
  %8 = load ptr, ptr %7, align 8
  %9 = load i64, ptr %4, align 8
  %10 = getelementptr inbounds %"struct.faiss::RangeQueryResult", ptr %8, i64 %9
  ret ptr %10
}

; Function Attrs: mustprogress nounwind uwtable
define linkonce_odr noundef i64 @_ZNKSt6vectorIN5faiss16RangeQueryResultESaIS1_EE4sizeEv(ptr noundef nonnull align 8 dereferenceable(24) %0) #1 comdat align 2 {
  %2 = alloca ptr, align 8
  store ptr %0, ptr %2, align 8
  %3 = load ptr, ptr %2, align 8
  %4 = getelementptr inbounds %"struct.std::_Vector_base.4", ptr %3, i32 0, i32 0
  %5 = getelementptr inbounds %"struct.std::_Vector_base<faiss::RangeQueryResult, std::allocator<faiss::RangeQueryResult>>::_Vector_impl_data", ptr %4, i32 0, i32 1
  %6 = load ptr, ptr %5, align 8
  %7 = getelementptr inbounds %"struct.std::_Vector_base.4", ptr %3, i32 0, i32 0
  %8 = getelementptr inbounds %"struct.std::_Vector_base<faiss::RangeQueryResult, std::allocator<faiss::RangeQueryResult>>::_Vector_impl_data", ptr %7, i32 0, i32 0
  %9 = load ptr, ptr %8, align 8
  %10 = ptrtoint ptr %6 to i64
  %11 = ptrtoint ptr %9 to i64
  %12 = sub i64 %10, %11
  %13 = sdiv exact i64 %12, 24
  ret i64 %13
}

; Function Attrs: mustprogress nounwind uwtable
define void @_ZN5faiss24RangeSearchPartialResult8set_limsEv(ptr noundef nonnull align 8 dereferenceable(72) %0) #1 align 2 {
  %2 = alloca ptr, align 8
  %3 = alloca i32, align 4
  %4 = alloca ptr, align 8
  store ptr %0, ptr %2, align 8
  %5 = load ptr, ptr %2, align 8
  store i32 0, ptr %3, align 4
  br label %6

6:                                                ; preds = %28, %1
  %7 = load i32, ptr %3, align 4
  %8 = sext i32 %7 to i64
  %9 = getelementptr inbounds %"struct.faiss::RangeSearchPartialResult", ptr %5, i32 0, i32 2
  %10 = call noundef i64 @_ZNKSt6vectorIN5faiss16RangeQueryResultESaIS1_EE4sizeEv(ptr noundef nonnull align 8 dereferenceable(24) %9) #11
  %11 = icmp ult i64 %8, %10
  br i1 %11, label %12, label %31

12:                                               ; preds = %6
  %13 = getelementptr inbounds %"struct.faiss::RangeSearchPartialResult", ptr %5, i32 0, i32 2
  %14 = load i32, ptr %3, align 4
  %15 = sext i32 %14 to i64
  %16 = call noundef nonnull align 8 dereferenceable(24) ptr @_ZNSt6vectorIN5faiss16RangeQueryResultESaIS1_EEixEm(ptr noundef nonnull align 8 dereferenceable(24) %13, i64 noundef %15) #11
  store ptr %16, ptr %4, align 8
  %17 = load ptr, ptr %4, align 8
  %18 = getelementptr inbounds %"struct.faiss::RangeQueryResult", ptr %17, i32 0, i32 1
  %19 = load i64, ptr %18, align 8
  %20 = getelementptr inbounds %"struct.faiss::RangeSearchPartialResult", ptr %5, i32 0, i32 1
  %21 = load ptr, ptr %20, align 8
  %22 = getelementptr inbounds %"struct.faiss::RangeSearchResult", ptr %21, i32 0, i32 2
  %23 = load ptr, ptr %22, align 8
  %24 = load ptr, ptr %4, align 8
  %25 = getelementptr inbounds %"struct.faiss::RangeQueryResult", ptr %24, i32 0, i32 0
  %26 = load i64, ptr %25, align 8
  %27 = getelementptr inbounds i64, ptr %23, i64 %26
  store i64 %19, ptr %27, align 8
  br label %28

28:                                               ; preds = %12
  %29 = load i32, ptr %3, align 4
  %30 = add nsw i32 %29, 1
  store i32 %30, ptr %3, align 4
  br label %6, !llvm.loop !9

31:                                               ; preds = %6
  ret void
}