; Function Attrs: mustprogress nofree norecurse nosync nounwind memory(readwrite, inaccessiblemem: none) uwtable
define void @_ZN5faiss24RangeSearchPartialResult8set_limsEv(ptr nocapture noundef nonnull readonly align 8 dereferenceable(72) %0) local_unnamed_addr #12 align 2 {
  %2 = getelementptr inbounds i8, ptr %0, i64 48
  %3 = getelementptr inbounds i8, ptr %0, i64 56
  %4 = load ptr, ptr %3, align 8
  %5 = load ptr, ptr %2, align 8
  %.not = icmp eq ptr %4, %5
  br i1 %.not, label %._crit_edge, label %.lr.ph

.lr.ph:                                           ; preds = %1
  %6 = getelementptr inbounds i8, ptr %0, i64 40
  br label %7

7:                                                ; preds = %.lr.ph, %7
  %indvars.iv = phi i64 [ 0, %.lr.ph ], [ %indvars.iv.next, %7 ]
  %8 = phi ptr [ %5, %.lr.ph ], [ %18, %7 ]
  %9 = getelementptr inbounds %"struct.faiss::RangeQueryResult", ptr %8, i64 %indvars.iv
  %10 = getelementptr inbounds i8, ptr %9, i64 8
  %11 = load i64, ptr %10, align 8
  %12 = load ptr, ptr %6, align 8
  %13 = getelementptr inbounds i8, ptr %12, i64 16
  %14 = load ptr, ptr %13, align 8
  %15 = load i64, ptr %9, align 8
  %16 = getelementptr inbounds i64, ptr %14, i64 %15
  store i64 %11, ptr %16, align 8
  %indvars.iv.next = add nuw nsw i64 %indvars.iv, 1
  %17 = load ptr, ptr %3, align 8
  %18 = load ptr, ptr %2, align 8
  %19 = ptrtoint ptr %17 to i64
  %20 = ptrtoint ptr %18 to i64
  %21 = sub i64 %19, %20
  %22 = sdiv exact i64 %21, 24
  %23 = icmp ugt i64 %22, %indvars.iv.next
  br i1 %23, label %7, label %._crit_edge, !llvm.loop !9

._crit_edge:                                      ; preds = %7, %1
  ret void
}